; Function Attrs: mustprogress uwtable
define hidden noundef zeroext i1 @_ZN11mpf_manager7is_zeroERK3mpf(ptr noundef nonnull align 8 dereferenceable(840) %this, ptr nocapture noundef nonnull readonly align 8 dereferenceable(32) %x) local_unnamed_addr #5 align 2 {
entry:
  %exponent.i.i = getelementptr inbounds i8, ptr %x, i64 24
  %0 = load i64, ptr %exponent.i.i, align 8
  %bf.load.i = load i32, ptr %x, align 8
  %bf.clear.i = and i32 %bf.load.i, 32767
  %m_mpz_manager.i.i = getelementptr inbounds i8, ptr %this, i64 728
  %1 = load ptr, ptr %m_mpz_manager.i.i, align 8
  %m_powers2.i.i = getelementptr inbounds i8, ptr %this, i64 736
  %sub.i.i = add nsw i32 %bf.clear.i, -1
  %call.i.i = tail call noundef nonnull align 8 dereferenceable(16) ptr @_ZN11mpf_manager7powers22m1Ejb(ptr noundef nonnull align 8 dereferenceable(104) %m_powers2.i.i, i32 noundef %sub.i.i, i1 noundef zeroext true)
  %call2.i.i = tail call noundef i64 @_ZNK11mpz_managerILb0EE9get_int64ERK3mpz(ptr noundef nonnull align 8 dereferenceable(600) %1, ptr noundef nonnull align 8 dereferenceable(16) %call.i.i)
  %cmp.i = icmp eq i64 %0, %call2.i.i
  %significand.i = getelementptr inbounds i8, ptr %x, i64 8
  %2 = load i32, ptr %significand.i, align 8
  %cmp.i2 = icmp eq i32 %2, 0
  %3 = select i1 %cmp.i, i1 %cmp.i2, i1 false
  ret i1 %3
}